target datalayout = "e-m:e-p270:32:32-p271:32:32-p272:64:64-i64:64-i128:128-f80:128-n8:16:32:64-S128"
target triple = "x86_64-pc-linux-gnu"

@H5_libinit_g = external global i8, align 1
@H5_libterm_g = external global i8, align 1
@.str = private unnamed_addr constant [97 x i8] c"generated/home/dtcxzyw/WorkSpace/Projects/compilers/llvm-opt-benchmark/bench/hdf5/hdf5/src/H5P.c\00", align 1
@H5E_FUNC_g = external global i64, align 8
@H5E_CANTINIT_g = external global i64, align 8
@.str.1 = private unnamed_addr constant [30 x i8] c"library initialization failed\00", align 1
@H5E_CANTSET_g = external global i64, align 8
@.str.2 = private unnamed_addr constant [22 x i8] c"can't set API context\00", align 1
@H5E_ARGS_g = external global i64, align 8
@H5E_BADTYPE_g = external global i64, align 8
@H5E_PLIST_g = external global i64, align 8
@H5E_CANTREGISTER_g = external global i64, align 8
@.str.8 = private unnamed_addr constant [26 x i8] c"not a property list class\00", align 1
@H5E_BADVALUE_g = external global i64, align 8
@.str.9 = private unnamed_addr constant [19 x i8] c"invalid class name\00", align 1
@__func__.H5Pregister2 = private unnamed_addr constant [13 x i8] c"H5Pregister2\00", align 1
@.str.14 = private unnamed_addr constant [37 x i8] c"properties >0 size must have default\00", align 1
@.str.15 = private unnamed_addr constant [37 x i8] c"unable to register property in class\00", align 1
@.str.16 = private unnamed_addr constant [42 x i8] c"unable to substitute property class in ID\00", align 1
@H5E_CANTCLOSEOBJ_g = external global i64, align 8
@.str.17 = private unnamed_addr constant [59 x i8] c"unable to close original property class after substitution\00", align 1

; Function Attrs: nounwind uwtable
define i32 @H5Pregister2(i64 noundef %0, ptr noundef %1, i64 noundef %2, ptr noundef %3, ptr noundef %4, ptr noundef %5, ptr noundef %6, ptr noundef %7, ptr noundef %8, ptr noundef %9, ptr noundef %10) #0 {
  %12 = alloca i64, align 8
  %13 = alloca ptr, align 8
  %14 = alloca i64, align 8
  %15 = alloca ptr, align 8
  %16 = alloca ptr, align 8
  %17 = alloca ptr, align 8
  %18 = alloca ptr, align 8
  %19 = alloca ptr, align 8
  %20 = alloca ptr, align 8
  %21 = alloca ptr, align 8
  %22 = alloca ptr, align 8
  %23 = alloca ptr, align 8
  %24 = alloca ptr, align 8
  %25 = alloca i32, align 4
  %26 = alloca i8, align 1
  %27 = alloca i8, align 1
  %28 = alloca ptr, align 8
  store i64 %0, ptr %12, align 8
  store ptr %1, ptr %13, align 8
  store i64 %2, ptr %14, align 8
  store ptr %3, ptr %15, align 8
  store ptr %4, ptr %16, align 8
  store ptr %5, ptr %17, align 8
  store ptr %6, ptr %18, align 8
  store ptr %7, ptr %19, align 8
  store ptr %8, ptr %20, align 8
  store ptr %9, ptr %21, align 8
  store ptr %10, ptr %22, align 8
  store i8 0, ptr %26, align 1
  store i8 0, ptr %27, align 1
  %29 = load i8, ptr @H5_libinit_g, align 1
  %30 = trunc i8 %29 to i1
  br i1 %30, label %35, label %31

31:                                               ; preds = %11
  %32 = load i8, ptr @H5_libterm_g, align 1
  %33 = trunc i8 %32 to i1
  %34 = xor i1 %33, true
  br label %35

35:                                               ; preds = %31, %11
  %36 = phi i1 [ false, %11 ], [ %34, %31 ]
  %37 = xor i1 %36, true
  %38 = xor i1 %37, true
  %39 = zext i1 %38 to i32
  %40 = sext i32 %39 to i64
  %41 = icmp ne i64 %40, 0
  br i1 %41, label %42, label %66

42:                                               ; preds = %35
  %43 = call i32 @H5_init_library()
  %44 = icmp slt i32 %43, 0
  %45 = xor i1 %44, true
  %46 = xor i1 %45, true
  %47 = zext i1 %46 to i32
  %48 = sext i32 %47 to i64
  %49 = icmp ne i64 %48, 0
  br i1 %49, label %50, label %65

50:                                               ; preds = %42
  br label %51

51:                                               ; preds = %50
  br label %52

52:                                               ; preds = %51
  br label %53

53:                                               ; preds = %52
  %54 = load i64, ptr @H5E_FUNC_g, align 8
  %55 = load i64, ptr @H5E_CANTINIT_g, align 8
  %56 = call i32 (ptr, ptr, i32, i64, i64, ptr, ...) @H5E_printf_stack(ptr noundef @.str, ptr noundef @__func__.H5Pregister2, i32 noundef 407, i64 noundef %54, i64 noundef %55, ptr noundef @.str.1)
  br label %57

57:                                               ; preds = %53
  store i8 1, ptr %27, align 1
  %58 = load i8, ptr %27, align 1
  %59 = trunc i8 %58 to i1
  %60 = zext i1 %59 to i8
  store i8 %60, ptr %27, align 1
  br label %61

61:                                               ; preds = %57
  br label %62

62:                                               ; preds = %61
  store i32 -1, ptr %25, align 4
  br label %227

63:                                               ; No predecessors!
  br label %64

64:                                               ; preds = %63
  br label %65

65:                                               ; preds = %64, %42
  br label %66

66:                                               ; preds = %65, %35
  %67 = call i32 @H5CX_push()
  %68 = icmp slt i32 %67, 0
  %69 = xor i1 %68, true
  %70 = xor i1 %69, true
  %71 = zext i1 %70 to i32
  %72 = sext i32 %71 to i64
  %73 = icmp ne i64 %72, 0
  br i1 %73, label %74, label %89

74:                                               ; preds = %66
  br label %75

75:                                               ; preds = %74
  br label %76

76:                                               ; preds = %75
  br label %77

77:                                               ; preds = %76
  %78 = load i64, ptr @H5E_FUNC_g, align 8
  %79 = load i64, ptr @H5E_CANTSET_g, align 8
  %80 = call i32 (ptr, ptr, i32, i64, i64, ptr, ...) @H5E_printf_stack(ptr noundef @.str, ptr noundef @__func__.H5Pregister2, i32 noundef 407, i64 noundef %78, i64 noundef %79, ptr noundef @.str.2)
  br label %81

81:                                               ; preds = %77
  store i8 1, ptr %27, align 1
  %82 = load i8, ptr %27, align 1
  %83 = trunc i8 %82 to i1
  %84 = zext i1 %83 to i8
  store i8 %84, ptr %27, align 1
  br label %85

85:                                               ; preds = %81
  br label %86

86:                                               ; preds = %85
  store i32 -1, ptr %25, align 4
  br label %227

87:                                               ; No predecessors!
  br label %88

88:                                               ; preds = %87
  br label %90

89:                                               ; preds = %66
  store i8 1, ptr %26, align 1
  br label %90

90:                                               ; preds = %89, %88
  %91 = call i32 @H5E_clear_stack()
  %92 = load i64, ptr %12, align 8
  %93 = call ptr @H5I_object_verify(i64 noundef %92, i32 noundef 10)
  store ptr %93, ptr %23, align 8
  %94 = icmp eq ptr null, %93
  br i1 %94, label %95, label %110

95:                                               ; preds = %90
  br label %96

96:                                               ; preds = %95
  br label %97

97:                                               ; preds = %96
  br label %98

98:                                               ; preds = %97
  %99 = load i64, ptr @H5E_ARGS_g, align 8
  %100 = load i64, ptr @H5E_BADTYPE_g, align 8
  %101 = call i32 (ptr, ptr, i32, i64, i64, ptr, ...) @H5E_printf_stack(ptr noundef @.str, ptr noundef @__func__.H5Pregister2, i32 noundef 411, i64 noundef %99, i64 noundef %100, ptr noundef @.str.8)
  br label %102

102:                                              ; preds = %98
  store i8 1, ptr %27, align 1
  %103 = load i8, ptr %27, align 1
  %104 = trunc i8 %103 to i1
  %105 = zext i1 %104 to i8
  store i8 %105, ptr %27, align 1
  br label %106

106:                                              ; preds = %102
  br label %107

107:                                              ; preds = %106
  store i32 -1, ptr %25, align 4
  br label %227

108:                                              ; No predecessors!
  br label %109

109:                                              ; preds = %108
  br label %110

110:                                              ; preds = %109, %90
  %111 = load ptr, ptr %13, align 8
  %112 = icmp ne ptr %111, null
  br i1 %112, label %113, label %117

113:                                              ; preds = %110
  %114 = load ptr, ptr %13, align 8
  %115 = load i8, ptr %114, align 1
  %116 = icmp ne i8 %115, 0
  br i1 %116, label %132, label %117

117:                                              ; preds = %113, %110
  br label %118

118:                                              ; preds = %117
  br label %119

119:                                              ; preds = %118
  br label %120

120:                                              ; preds = %119
  %121 = load i64, ptr @H5E_ARGS_g, align 8
  %122 = load i64, ptr @H5E_BADVALUE_g, align 8
  %123 = call i32 (ptr, ptr, i32, i64, i64, ptr, ...) @H5E_printf_stack(ptr noundef @.str, ptr noundef @__func__.H5Pregister2, i32 noundef 413, i64 noundef %121, i64 noundef %122, ptr noundef @.str.9)
  br label %124

124:                                              ; preds = %120
  store i8 1, ptr %27, align 1
  %125 = load i8, ptr %27, align 1
  %126 = trunc i8 %125 to i1
  %127 = zext i1 %126 to i8
  store i8 %127, ptr %27, align 1
  br label %128

128:                                              ; preds = %124
  br label %129

129:                                              ; preds = %128
  store i32 -1, ptr %25, align 4
  br label %227

130:                                              ; No predecessors!
  br label %131

131:                                              ; preds = %130
  br label %132

132:                                              ; preds = %131, %113
  %133 = load i64, ptr %14, align 8
  %134 = icmp ugt i64 %133, 0
  br i1 %134, label %135, label %153

135:                                              ; preds = %132
  %136 = load ptr, ptr %15, align 8
  %137 = icmp eq ptr %136, null
  br i1 %137, label %138, label %153

138:                                              ; preds = %135
  br label %139

139:                                              ; preds = %138
  br label %140

140:                                              ; preds = %139
  br label %141

141:                                              ; preds = %140
  %142 = load i64, ptr @H5E_ARGS_g, align 8
  %143 = load i64, ptr @H5E_BADVALUE_g, align 8
  %144 = call i32 (ptr, ptr, i32, i64, i64, ptr, ...) @H5E_printf_stack(ptr noundef @.str, ptr noundef @__func__.H5Pregister2, i32 noundef 415, i64 noundef %142, i64 noundef %143, ptr noundef @.str.14)
  br label %145

145:                                              ; preds = %141
  store i8 1, ptr %27, align 1
  %146 = load i8, ptr %27, align 1
  %147 = trunc i8 %146 to i1
  %148 = zext i1 %147 to i8
  store i8 %148, ptr %27, align 1
  br label %149

149:                                              ; preds = %145
  br label %150

150:                                              ; preds = %149
  store i32 -1, ptr %25, align 4
  br label %227

151:                                              ; No predecessors!
  br label %152

152:                                              ; preds = %151
  br label %153

153:                                              ; preds = %152, %135, %132
  %154 = load ptr, ptr %23, align 8
  store ptr %154, ptr %24, align 8
  %155 = load ptr, ptr %13, align 8
  %156 = load i64, ptr %14, align 8
  %157 = load ptr, ptr %15, align 8
  %158 = load ptr, ptr %16, align 8
  %159 = load ptr, ptr %17, align 8
  %160 = load ptr, ptr %18, align 8
  %161 = load ptr, ptr %19, align 8
  %162 = load ptr, ptr %20, align 8
  %163 = load ptr, ptr %21, align 8
  %164 = load ptr, ptr %22, align 8
  %165 = call i32 @H5P__register(ptr noundef %23, ptr noundef %155, i64 noundef %156, ptr noundef %157, ptr noundef %158, ptr noundef %159, ptr noundef %160, ptr noundef null, ptr noundef null, ptr noundef %161, ptr noundef %162, ptr noundef %163, ptr noundef %164)
  store i32 %165, ptr %25, align 4
  %166 = icmp slt i32 %165, 0
  br i1 %166, label %167, label %182

167:                                              ; preds = %153
  br label %168

168:                                              ; preds = %167
  br label %169

169:                                              ; preds = %168
  br label %170

170:                                              ; preds = %169
  %171 = load i64, ptr @H5E_PLIST_g, align 8
  %172 = load i64, ptr @H5E_CANTREGISTER_g, align 8
  %173 = call i32 (ptr, ptr, i32, i64, i64, ptr, ...) @H5E_printf_stack(ptr noundef @.str, ptr noundef @__func__.H5Pregister2, i32 noundef 421, i64 noundef %171, i64 noundef %172, ptr noundef @.str.15)
  br label %174

174:                                              ; preds = %170
  store i8 1, ptr %27, align 1
  %175 = load i8, ptr %27, align 1
  %176 = trunc i8 %175 to i1
  %177 = zext i1 %176 to i8
  store i8 %177, ptr %27, align 1
  br label %178

178:                                              ; preds = %174
  br label %179

179:                                              ; preds = %178
  store i32 -1, ptr %25, align 4
  br label %227

180:                                              ; No predecessors!
  br label %181

181:                                              ; preds = %180
  br label %182

182:                                              ; preds = %181, %153
  %183 = load ptr, ptr %23, align 8
  %184 = load ptr, ptr %24, align 8
  %185 = icmp ne ptr %183, %184
  br i1 %185, label %186, label %226

186:                                              ; preds = %182
  %187 = load i64, ptr %12, align 8
  %188 = load ptr, ptr %23, align 8
  %189 = call ptr @H5I_subst(i64 noundef %187, ptr noundef %188)
  store ptr %189, ptr %28, align 8
  %190 = icmp eq ptr null, %189
  br i1 %190, label %191, label %206

191:                                              ; preds = %186
  br label %192

192:                                              ; preds = %191
  br label %193

193:                                              ; preds = %192
  br label %194

194:                                              ; preds = %193
  %195 = load i64, ptr @H5E_PLIST_g, align 8
  %196 = load i64, ptr @H5E_CANTSET_g, align 8
  %197 = call i32 (ptr, ptr, i32, i64, i64, ptr, ...) @H5E_printf_stack(ptr noundef @.str, ptr noundef @__func__.H5Pregister2, i32 noundef 429, i64 noundef %195, i64 noundef %196, ptr noundef @.str.16)
  br label %198

198:                                              ; preds = %194
  store i8 1, ptr %27, align 1
  %199 = load i8, ptr %27, align 1
  %200 = trunc i8 %199 to i1
  %201 = zext i1 %200 to i8
  store i8 %201, ptr %27, align 1
  br label %202

202:                                              ; preds = %198
  br label %203

203:                                              ; preds = %202
  store i32 -1, ptr %25, align 4
  br label %227

204:                                              ; No predecessors!
  br label %205

205:                                              ; preds = %204
  br label %206

206:                                              ; preds = %205, %186
  %207 = load ptr, ptr %28, align 8
  %208 = call i32 @H5P__close_class(ptr noundef %207)
  %209 = icmp slt i32 %208, 0
  br i1 %209, label %210, label %225

210:                                              ; preds = %206
  br label %211

211:                                              ; preds = %210
  br label %212

212:                                              ; preds = %211
  br label %213

213:                                              ; preds = %212
  %214 = load i64, ptr @H5E_PLIST_g, align 8
  %215 = load i64, ptr @H5E_CANTCLOSEOBJ_g, align 8
  %216 = call i32 (ptr, ptr, i32, i64, i64, ptr, ...) @H5E_printf_stack(ptr noundef @.str, ptr noundef @__func__.H5Pregister2, i32 noundef 435, i64 noundef %214, i64 noundef %215, ptr noundef @.str.17)
  br label %217

217:                                              ; preds = %213
  store i8 1, ptr %27, align 1
  %218 = load i8, ptr %27, align 1
  %219 = trunc i8 %218 to i1
  %220 = zext i1 %219 to i8
  store i8 %220, ptr %27, align 1
  br label %221

221:                                              ; preds = %217
  br label %222

222:                                              ; preds = %221
  store i32 -1, ptr %25, align 4
  br label %227

223:                                              ; No predecessors!
  br label %224

224:                                              ; preds = %223
  br label %225

225:                                              ; preds = %224, %206
  br label %226

226:                                              ; preds = %225, %182
  br label %227

227:                                              ; preds = %226, %222, %203, %179, %150, %129, %107, %86, %62
  %228 = load i8, ptr %26, align 1
  %229 = trunc i8 %228 to i1
  %230 = xor i1 %229, true
  %231 = xor i1 %230, true
  %232 = zext i1 %231 to i32
  %233 = sext i32 %232 to i64
  %234 = icmp ne i64 %233, 0
  br i1 %234, label %235, label %237

235:                                              ; preds = %227
  %236 = call i32 @H5CX_pop(i1 noundef zeroext true)
  store i8 0, ptr %26, align 1
  br label %237

237:                                              ; preds = %235, %227
  %238 = load i8, ptr %27, align 1
  %239 = trunc i8 %238 to i1
  %240 = xor i1 %239, true
  %241 = xor i1 %240, true
  %242 = zext i1 %241 to i32
  %243 = sext i32 %242 to i64
  %244 = icmp ne i64 %243, 0
  br i1 %244, label %245, label %247

245:                                              ; preds = %237
  %246 = call i32 @H5E_dump_api_stack()
  br label %247

247:                                              ; preds = %245, %237
  %248 = load i32, ptr %25, align 4
  ret i32 %248
}