; Function Attrs: nounwind uwtable
define range(i32 -1, -2147483648) i32 @H5Pregister2(i64 noundef %0, ptr noundef %1, i64 noundef %2, ptr noundef %3, ptr noundef %4, ptr noundef %5, ptr noundef %6, ptr noundef %7, ptr noundef %8, ptr noundef %9, ptr noundef %10) local_unnamed_addr #0 {
  %12 = alloca ptr, align 8
  %13 = load i8, ptr @H5_libinit_g, align 1
  %14 = trunc i8 %13 to i1
  %15 = load i8, ptr @H5_libterm_g, align 1
  %16 = trunc i8 %15 to i1
  %17 = select i1 %14, i1 true, i1 %16
  br i1 %17, label %25, label %18

18:                                               ; preds = %11
  %19 = tail call i32 @H5_init_library() #2
  %20 = icmp slt i32 %19, 0
  br i1 %20, label %21, label %25

21:                                               ; preds = %18
  %22 = load i64, ptr @H5E_FUNC_g, align 8
  %23 = load i64, ptr @H5E_CANTINIT_g, align 8
  %24 = tail call i32 (ptr, ptr, i32, i64, i64, ptr, ...) @H5E_printf_stack(ptr noundef nonnull @.str, ptr noundef nonnull @__func__.H5Pregister2, i32 noundef 407, i64 noundef %22, i64 noundef %23, ptr noundef nonnull @.str.1) #2
  br label %.thread46

25:                                               ; preds = %18, %11
  %26 = tail call i32 @H5CX_push() #2
  %27 = icmp slt i32 %26, 0
  br i1 %27, label %28, label %32

28:                                               ; preds = %25
  %29 = load i64, ptr @H5E_FUNC_g, align 8
  %30 = load i64, ptr @H5E_CANTSET_g, align 8
  %31 = tail call i32 (ptr, ptr, i32, i64, i64, ptr, ...) @H5E_printf_stack(ptr noundef nonnull @.str, ptr noundef nonnull @__func__.H5Pregister2, i32 noundef 407, i64 noundef %29, i64 noundef %30, ptr noundef nonnull @.str.2) #2
  br label %.thread46

32:                                               ; preds = %25
  %33 = tail call i32 @H5E_clear_stack() #2
  %34 = tail call ptr @H5I_object_verify(i64 noundef %0, i32 noundef 10) #2
  store ptr %34, ptr %12, align 8
  %35 = icmp eq ptr %34, null
  br i1 %35, label %36, label %40

36:                                               ; preds = %32
  %37 = load i64, ptr @H5E_ARGS_g, align 8
  %38 = load i64, ptr @H5E_BADTYPE_g, align 8
  %39 = tail call i32 (ptr, ptr, i32, i64, i64, ptr, ...) @H5E_printf_stack(ptr noundef nonnull @.str, ptr noundef nonnull @__func__.H5Pregister2, i32 noundef 411, i64 noundef %37, i64 noundef %38, ptr noundef nonnull @.str.8) #2
  br label %.thread52

40:                                               ; preds = %32
  %.not = icmp eq ptr %1, null
  br i1 %.not, label %43, label %41

41:                                               ; preds = %40
  %42 = load i8, ptr %1, align 1
  %.not36 = icmp eq i8 %42, 0
  br i1 %.not36, label %43, label %47

43:                                               ; preds = %40, %41
  %44 = load i64, ptr @H5E_ARGS_g, align 8
  %45 = load i64, ptr @H5E_BADVALUE_g, align 8
  %46 = tail call i32 (ptr, ptr, i32, i64, i64, ptr, ...) @H5E_printf_stack(ptr noundef nonnull @.str, ptr noundef nonnull @__func__.H5Pregister2, i32 noundef 413, i64 noundef %44, i64 noundef %45, ptr noundef nonnull @.str.9) #2
  br label %.thread52

47:                                               ; preds = %41
  %48 = icmp ne i64 %2, 0
  %49 = icmp eq ptr %3, null
  %or.cond = and i1 %48, %49
  br i1 %or.cond, label %50, label %54

50:                                               ; preds = %47
  %51 = load i64, ptr @H5E_ARGS_g, align 8
  %52 = load i64, ptr @H5E_BADVALUE_g, align 8
  %53 = tail call i32 (ptr, ptr, i32, i64, i64, ptr, ...) @H5E_printf_stack(ptr noundef nonnull @.str, ptr noundef nonnull @__func__.H5Pregister2, i32 noundef 415, i64 noundef %51, i64 noundef %52, ptr noundef nonnull @.str.14) #2
  br label %.thread52

54:                                               ; preds = %47
  %55 = call i32 @H5P__register(ptr noundef nonnull %12, ptr noundef nonnull %1, i64 noundef %2, ptr noundef %3, ptr noundef %4, ptr noundef %5, ptr noundef %6, ptr noundef null, ptr noundef null, ptr noundef %7, ptr noundef %8, ptr noundef %9, ptr noundef %10) #2
  %56 = icmp slt i32 %55, 0
  br i1 %56, label %57, label %61

57:                                               ; preds = %54
  %58 = load i64, ptr @H5E_PLIST_g, align 8
  %59 = load i64, ptr @H5E_CANTREGISTER_g, align 8
  %60 = call i32 (ptr, ptr, i32, i64, i64, ptr, ...) @H5E_printf_stack(ptr noundef nonnull @.str, ptr noundef nonnull @__func__.H5Pregister2, i32 noundef 421, i64 noundef %58, i64 noundef %59, ptr noundef nonnull @.str.15) #2
  br label %.thread52

61:                                               ; preds = %54
  %62 = load ptr, ptr %12, align 8
  %.not37 = icmp eq ptr %62, %34
  br i1 %.not37, label %78, label %63

63:                                               ; preds = %61
  %64 = call ptr @H5I_subst(i64 noundef %0, ptr noundef %62) #2
  %65 = icmp eq ptr %64, null
  br i1 %65, label %66, label %70

66:                                               ; preds = %63
  %67 = load i64, ptr @H5E_PLIST_g, align 8
  %68 = load i64, ptr @H5E_CANTSET_g, align 8
  %69 = call i32 (ptr, ptr, i32, i64, i64, ptr, ...) @H5E_printf_stack(ptr noundef nonnull @.str, ptr noundef nonnull @__func__.H5Pregister2, i32 noundef 429, i64 noundef %67, i64 noundef %68, ptr noundef nonnull @.str.16) #2
  br label %.thread52

70:                                               ; preds = %63
  %71 = call i32 @H5P__close_class(ptr noundef nonnull %64) #2
  %72 = icmp slt i32 %71, 0
  br i1 %72, label %73, label %78

73:                                               ; preds = %70
  %74 = load i64, ptr @H5E_PLIST_g, align 8
  %75 = load i64, ptr @H5E_CANTCLOSEOBJ_g, align 8
  %76 = call i32 (ptr, ptr, i32, i64, i64, ptr, ...) @H5E_printf_stack(ptr noundef nonnull @.str, ptr noundef nonnull @__func__.H5Pregister2, i32 noundef 435, i64 noundef %74, i64 noundef %75, ptr noundef nonnull @.str.17) #2
  br label %.thread52

.thread52:                                        ; preds = %43, %73, %66, %57, %50, %36
  %77 = call i32 @H5CX_pop(i1 noundef zeroext true) #2
  br label %.thread46

78:                                               ; preds = %61, %70
  %79 = call i32 @H5CX_pop(i1 noundef zeroext true) #2
  br label %81

.thread46:                                        ; preds = %28, %21, %.thread52
  %80 = call i32 @H5E_dump_api_stack() #2
  br label %81

81:                                               ; preds = %78, %.thread46
  %.04349 = phi i32 [ -1, %.thread46 ], [ %55, %78 ]
  ret i32 %.04349
}